; Function Attrs: nounwind uwtable
define ptr @agxget(ptr noundef %0, ptr noundef readonly captures(none) %1) local_unnamed_addr #0 {
  %3 = load ptr, ptr @AgDataRecName, align 8, !tbaa !15
  %4 = tail call ptr @aggetrec(ptr noundef %0, ptr noundef %3, i32 noundef 0) #12
  %5 = getelementptr inbounds nuw i8, ptr %4, i64 24
  %6 = load ptr, ptr %5, align 8, !tbaa !35
  %7 = getelementptr inbounds nuw i8, ptr %1, i64 32
  %8 = load i32, ptr %7, align 8, !tbaa !36
  %9 = sext i32 %8 to i64
  %10 = getelementptr inbounds ptr, ptr %6, i64 %9
  %11 = load ptr, ptr %10, align 8, !tbaa !15
  ret ptr %11
}